target datalayout = "e-m:e-p270:32:32-p271:32:32-p272:64:64-i64:64-i128:128-f80:128-n8:16:32:64-S128"
target triple = "x86_64-pc-linux-gnu"

%class.GPUProgram = type <{ ptr, ptr, ptr, i32, [4 x i8], %"class.std::map", %"class.std::map", %"class.std::map.0", i32, i32, i32, [4 x i8] }>
%"class.std::map" = type { %"class.std::_Rb_tree" }
%"class.std::_Rb_tree" = type { %"struct.std::_Rb_tree<std::__cxx11::basic_string<char>, std::pair<const std::__cxx11::basic_string<char>, int>, std::_Select1st<std::pair<const std::__cxx11::basic_string<char>, int>>, std::less<std::__cxx11::basic_string<char>>>::_Rb_tree_impl" }
%"struct.std::_Rb_tree<std::__cxx11::basic_string<char>, std::pair<const std::__cxx11::basic_string<char>, int>, std::_Select1st<std::pair<const std::__cxx11::basic_string<char>, int>>, std::less<std::__cxx11::basic_string<char>>>::_Rb_tree_impl" = type { %"struct.std::_Rb_tree_key_compare", %"struct.std::_Rb_tree_header" }
%"struct.std::_Rb_tree_key_compare" = type { %"struct.std::less" }
%"struct.std::less" = type { i8 }
%"struct.std::_Rb_tree_header" = type { %"struct.std::_Rb_tree_node_base", i64 }
%"struct.std::_Rb_tree_node_base" = type { i32, ptr, ptr, ptr }
%"class.std::map.0" = type { %"class.std::_Rb_tree.1" }
%"class.std::_Rb_tree.1" = type { %"struct.std::_Rb_tree<unsigned int, std::pair<const unsigned int, std::pair<unsigned int, unsigned int>>, std::_Select1st<std::pair<const unsigned int, std::pair<unsigned int, unsigned int>>>, std::less<unsigned int>>::_Rb_tree_impl" }
%"struct.std::_Rb_tree<unsigned int, std::pair<const unsigned int, std::pair<unsigned int, unsigned int>>, std::_Select1st<std::pair<const unsigned int, std::pair<unsigned int, unsigned int>>>, std::less<unsigned int>>::_Rb_tree_impl" = type { %"struct.std::_Rb_tree_key_compare.5", %"struct.std::_Rb_tree_header" }
%"struct.std::_Rb_tree_key_compare.5" = type { %"struct.std::less.6" }
%"struct.std::less.6" = type { i8 }
%"class.std::__cxx11::basic_string" = type { %"struct.std::__cxx11::basic_string<char>::_Alloc_hider", i64, %union.anon }
%"struct.std::__cxx11::basic_string<char>::_Alloc_hider" = type { ptr }
%union.anon = type { i64, [8 x i8] }
%class.GPUShader = type <{ %"class.std::__cxx11::basic_string", i32, i32, i8, i8, [6 x i8] }>

@__glewAttachShader = external global ptr, align 8

; Function Attrs: mustprogress nounwind uwtable
define linkonce_odr noundef i32 @_ZNK9GPUShader2idEv(ptr noundef nonnull align 8 dereferenceable(42) %0) #5 comdat align 2 {
  %2 = alloca ptr, align 8
  store ptr %0, ptr %2, align 8
  %3 = load ptr, ptr %2, align 8
  %4 = getelementptr inbounds %class.GPUShader, ptr %3, i32 0, i32 2
  %5 = load i32, ptr %4, align 4
  ret i32 %5
}

; Function Attrs: mustprogress uwtable
define void @_ZN10GPUProgram6attachEv(ptr noundef nonnull align 8 dereferenceable(188) %0) #4 align 2 {
  %2 = alloca ptr, align 8
  store ptr %0, ptr %2, align 8
  %3 = load ptr, ptr %2, align 8
  %4 = getelementptr inbounds %class.GPUProgram, ptr %3, i32 0, i32 0
  %5 = load ptr, ptr %4, align 8
  %6 = icmp ne ptr %5, null
  br i1 %6, label %7, label %14

7:                                                ; preds = %1
  %8 = load ptr, ptr @__glewAttachShader, align 8
  %9 = getelementptr inbounds %class.GPUProgram, ptr %3, i32 0, i32 3
  %10 = load i32, ptr %9, align 8
  %11 = getelementptr inbounds %class.GPUProgram, ptr %3, i32 0, i32 0
  %12 = load ptr, ptr %11, align 8
  %13 = call noundef i32 @_ZNK9GPUShader2idEv(ptr noundef nonnull align 8 dereferenceable(42) %12)
  call void %8(i32 noundef %10, i32 noundef %13)
  br label %14

14:                                               ; preds = %7, %1
  %15 = getelementptr inbounds %class.GPUProgram, ptr %3, i32 0, i32 1
  %16 = load ptr, ptr %15, align 8
  %17 = icmp ne ptr %16, null
  br i1 %17, label %18, label %25

18:                                               ; preds = %14
  %19 = load ptr, ptr @__glewAttachShader, align 8
  %20 = getelementptr inbounds %class.GPUProgram, ptr %3, i32 0, i32 3
  %21 = load i32, ptr %20, align 8
  %22 = getelementptr inbounds %class.GPUProgram, ptr %3, i32 0, i32 1
  %23 = load ptr, ptr %22, align 8
  %24 = call noundef i32 @_ZNK9GPUShader2idEv(ptr noundef nonnull align 8 dereferenceable(42) %23)
  call void %19(i32 noundef %21, i32 noundef %24)
  br label %25

25:                                               ; preds = %18, %14
  %26 = getelementptr inbounds %class.GPUProgram, ptr %3, i32 0, i32 2
  %27 = load ptr, ptr %26, align 8
  %28 = icmp ne ptr %27, null
  br i1 %28, label %29, label %36

29:                                               ; preds = %25
  %30 = load ptr, ptr @__glewAttachShader, align 8
  %31 = getelementptr inbounds %class.GPUProgram, ptr %3, i32 0, i32 3
  %32 = load i32, ptr %31, align 8
  %33 = getelementptr inbounds %class.GPUProgram, ptr %3, i32 0, i32 2
  %34 = load ptr, ptr %33, align 8
  %35 = call noundef i32 @_ZNK9GPUShader2idEv(ptr noundef nonnull align 8 dereferenceable(42) %34)
  call void %30(i32 noundef %32, i32 noundef %35)
  br label %36

36:                                               ; preds = %29, %25
  ret void
}