; Function Attrs: mustprogress uwtable
define void @_ZN10GPUProgram6attachEv(ptr noundef nonnull readonly align 8 captures(none) dereferenceable(188) %0) local_unnamed_addr #3 align 2 {
  %2 = load ptr, ptr %0, align 8
  %.not = icmp eq ptr %2, null
  br i1 %.not, label %9, label %3

3:                                                ; preds = %1
  %4 = load ptr, ptr @__glewAttachShader, align 8
  %5 = getelementptr inbounds nuw i8, ptr %0, i64 24
  %6 = load i32, ptr %5, align 8
  %7 = getelementptr inbounds nuw i8, ptr %2, i64 36
  %8 = load i32, ptr %7, align 4
  tail call void %4(i32 noundef %6, i32 noundef %8)
  br label %9

9:                                                ; preds = %3, %1
  %10 = getelementptr inbounds nuw i8, ptr %0, i64 8
  %11 = load ptr, ptr %10, align 8
  %.not3 = icmp eq ptr %11, null
  br i1 %.not3, label %18, label %12

12:                                               ; preds = %9
  %13 = load ptr, ptr @__glewAttachShader, align 8
  %14 = getelementptr inbounds nuw i8, ptr %0, i64 24
  %15 = load i32, ptr %14, align 8
  %16 = getelementptr inbounds nuw i8, ptr %11, i64 36
  %17 = load i32, ptr %16, align 4
  tail call void %13(i32 noundef %15, i32 noundef %17)
  br label %18

18:                                               ; preds = %12, %9
  %19 = getelementptr inbounds nuw i8, ptr %0, i64 16
  %20 = load ptr, ptr %19, align 8
  %.not4 = icmp eq ptr %20, null
  br i1 %.not4, label %27, label %21

21:                                               ; preds = %18
  %22 = load ptr, ptr @__glewAttachShader, align 8
  %23 = getelementptr inbounds nuw i8, ptr %0, i64 24
  %24 = load i32, ptr %23, align 8
  %25 = getelementptr inbounds nuw i8, ptr %20, i64 36
  %26 = load i32, ptr %25, align 4
  tail call void %22(i32 noundef %24, i32 noundef %26)
  br label %27

27:                                               ; preds = %21, %18
  ret void
}